target datalayout = "e-m:e-p270:32:32-p271:32:32-p272:64:64-i64:64-i128:128-f80:128-n8:16:32:64-S128"
target triple = "x86_64-pc-linux-gnu"

%struct.XYRemap = type { [4 x [4 x i16]], [4 x [4 x i16]], [4 x [4 x float]] }

; Function Attrs: nounwind uwtable
define internal void @nearest_kernel(float noundef %0, float noundef %1, ptr noundef %2, ptr noundef %3, ptr noundef %4, ptr noundef %5) #0 {
  %7 = alloca float, align 4
  %8 = alloca float, align 4
  %9 = alloca ptr, align 8
  %10 = alloca ptr, align 8
  %11 = alloca ptr, align 8
  %12 = alloca ptr, align 8
  %13 = alloca i32, align 4
  %14 = alloca i32, align 4
  store float %0, ptr %7, align 4, !tbaa !99
  store float %1, ptr %8, align 4, !tbaa !99
  store ptr %2, ptr %9, align 8, !tbaa !134
  store ptr %3, ptr %10, align 8, !tbaa !21
  store ptr %4, ptr %11, align 8, !tbaa !21
  store ptr %5, ptr %12, align 8, !tbaa !21
  call void @llvm.lifetime.start.p0(i64 4, ptr %13) #13
  %15 = load float, ptr %8, align 4, !tbaa !99
  %16 = call i64 @llvm.lrint.i64.f32(float %15)
  %17 = add nsw i64 %16, 1
  %18 = trunc i64 %17 to i32
  store i32 %18, ptr %13, align 4, !tbaa !9
  call void @llvm.lifetime.start.p0(i64 4, ptr %14) #13
  %19 = load float, ptr %7, align 4, !tbaa !99
  %20 = call i64 @llvm.lrint.i64.f32(float %19)
  %21 = add nsw i64 %20, 1
  %22 = trunc i64 %21 to i32
  store i32 %22, ptr %14, align 4, !tbaa !9
  %23 = load ptr, ptr %9, align 8, !tbaa !134
  %24 = getelementptr inbounds nuw %struct.XYRemap, ptr %23, i32 0, i32 0
  %25 = load i32, ptr %13, align 4, !tbaa !9
  %26 = sext i32 %25 to i64
  %27 = getelementptr inbounds [4 x [4 x i16]], ptr %24, i64 0, i64 %26
  %28 = load i32, ptr %14, align 4, !tbaa !9
  %29 = sext i32 %28 to i64
  %30 = getelementptr inbounds [4 x i16], ptr %27, i64 0, i64 %29
  %31 = load i16, ptr %30, align 2, !tbaa !23
  %32 = load ptr, ptr %10, align 8, !tbaa !21
  %33 = getelementptr inbounds i16, ptr %32, i64 0
  store i16 %31, ptr %33, align 2, !tbaa !23
  %34 = load ptr, ptr %9, align 8, !tbaa !134
  %35 = getelementptr inbounds nuw %struct.XYRemap, ptr %34, i32 0, i32 1
  %36 = load i32, ptr %13, align 4, !tbaa !9
  %37 = sext i32 %36 to i64
  %38 = getelementptr inbounds [4 x [4 x i16]], ptr %35, i64 0, i64 %37
  %39 = load i32, ptr %14, align 4, !tbaa !9
  %40 = sext i32 %39 to i64
  %41 = getelementptr inbounds [4 x i16], ptr %38, i64 0, i64 %40
  %42 = load i16, ptr %41, align 2, !tbaa !23
  %43 = load ptr, ptr %11, align 8, !tbaa !21
  %44 = getelementptr inbounds i16, ptr %43, i64 0
  store i16 %42, ptr %44, align 2, !tbaa !23
  call void @llvm.lifetime.end.p0(i64 4, ptr %14) #13
  call void @llvm.lifetime.end.p0(i64 4, ptr %13) #13
  ret void
}