; Function Attrs: mustprogress nofree norecurse nosync nounwind willreturn memory(argmem: readwrite) uwtable
define internal void @nearest_kernel(float noundef %0, float noundef %1, ptr noundef readonly captures(none) %2, ptr noundef writeonly captures(none) initializes((0, 2)) %3, ptr noundef writeonly captures(none) initializes((0, 2)) %4, ptr readnone captures(none) %5) #0 {
  %7 = tail call i64 @llvm.lrint.i64.f32(float %1)
  %8 = tail call i64 @llvm.lrint.i64.f32(float %0)
  %9 = shl i64 %7, 32
  %sext = add i64 %9, 4294967296
  %10 = ashr exact i64 %sext, 32
  %11 = shl i64 %8, 32
  %sext9 = add i64 %11, 4294967296
  %12 = ashr exact i64 %sext9, 32
  %13 = getelementptr inbounds [4 x [4 x i16]], ptr %2, i64 0, i64 %10, i64 %12
  %14 = load i16, ptr %13, align 2, !tbaa !15
  store i16 %14, ptr %3, align 2, !tbaa !15
  %15 = getelementptr inbounds nuw i8, ptr %2, i64 32
  %16 = getelementptr inbounds [4 x [4 x i16]], ptr %15, i64 0, i64 %10, i64 %12
  %17 = load i16, ptr %16, align 2, !tbaa !15
  store i16 %17, ptr %4, align 2, !tbaa !15
  ret void
}